Certificate:
    Data:
        Version: 3 (0x2)
        Serial Number:
            3c:da:2f:fd:38:d2:fe:d5:8c:8a:f6:55:1e:a1:d7:0a:c4:82:6e:97
        Signature Algorithm: sha256WithRSAEncryption
        Issuer: CN = localhost
        Validity
            Not Before: Jun 16 18:54:39 2025 GMT
            Not After : Jul 16 18:54:39 2025 GMT
        Subject: CN = localhost
        Subject Public Key Info:
            Public Key Algorithm: rsaEncryption
                Public-Key: (2048 bit)
                Modulus:
                    00:c9:b0:06:5c:9f:98:77:fb:bd:57:99:4e:1e:2b:
                    3d:a5:6d:b8:6c:9f:79:29:ca:25:e1:2a:40:cd:2a:
                    94:30:42:c3:a0:6c:d3:37:66:fe:b8:e0:f7:d3:c1:
                    68:9e:1c:e4:6f:30:7f:d7:cc:1b:b0:0a:87:39:a4:
                    6a:b9:89:87:e9:b2:2e:ff:b0:f3:c4:ca:68:fc:6a:
                    73:4e:cb:84:2f:19:f8:d6:9d:a6:d4:a8:be:ce:a7:
                    28:c2:c4:7e:f1:36:6b:46:6b:36:10:d9:01:e1:0d:
                    c0:5e:ed:a0:c5:23:61:5e:7d:f0:5e:18:09:73:00:
                    e0:76:3f:fa:32:0f:eb:78:0b:26:6a:79:ed:c4:f1:
                    1d:33:b3:ba:e5:56:82:69:1a:13:56:9c:f4:b7:8f:
                    67:85:32:1d:29:46:7e:9f:34:75:f1:de:a6:4e:11:
                    53:eb:cc:e3:4a:4f:ec:f1:eb:33:3c:38:af:25:0c:
                    c5:72:d8:22:5c:2f:d9:d3:ca:f1:3c:df:f1:2d:86:
                    c6:1e:80:a5:27:85:99:79:b9:bc:c9:71:8f:f6:be:
                    73:e8:a1:c5:f0:29:1b:cc:5c:e1:71:15:dc:b5:8b:
                    5c:f3:ec:13:1a:a5:5c:a1:ec:42:07:7f:ff:2c:27:
                    ad:ac:5b:36:94:f0:01:9a:3d:f4:94:17:d6:2e:fe:
                    4b:d9
                Exponent: 65537 (0x10001)
        X509v3 extensions:
            X509v3 Subject Key Identifier: 
                F5:30:8F:65:80:0F:A3:02:96:85:6B:90:14:0C:03:6D:E5:A6:3E:4E
            X509v3 Authority Key Identifier: 
                F5:30:8F:65:80:0F:A3:02:96:85:6B:90:14:0C:03:6D:E5:A6:3E:4E
            X509v3 Basic Constraints: critical
                CA:TRUE
    Signature Algorithm: sha256WithRSAEncryption
    Signature Value:
        05:51:f8:0f:87:19:a3:ab:ed:c5:e5:8d:0a:05:f5:e9:45:2e:
        ac:07:16:99:7f:01:57:f4:e7:51:f8:bc:eb:57:41:96:07:c5:
        22:4c:de:45:24:c9:57:ae:66:98:6e:41:4f:fc:49:cf:26:62:
        ce:c4:68:b3:06:23:ed:19:a1:a7:91:09:e8:59:af:82:36:d0:
        e1:38:cd:59:ca:66:dc:92:55:60:f8:08:87:6e:0d:a8:45:41:
        1a:1a:5a:fc:55:1e:ad:92:a5:7c:4f:8f:d6:8c:d5:6f:11:79:
        a9:d1:70:3c:3f:c8:67:de:7a:5c:ce:03:4d:1f:27:43:6e:e2:
        3a:bb:84:7b:c3:e1:4d:e3:e4:06:74:d8:5e:59:9b:3f:9f:9a:
        4d:41:93:90:3d:3a:4f:47:c1:8b:37:7c:0f:38:db:de:8a:ef:
        fc:41:7b:41:65:51:41:9b:9d:14:21:e9:a7:4e:64:e2:59:9f:
        f0:d3:b5:1a:30:a7:df:d6:10:83:93:9f:fd:98:e6:54:b8:f3:
        cd:c8:14:76:2e:ba:3e:2b:22:08:4d:30:65:0c:2f:a8:18:c9:
        37:df:b0:16:2c:70:d4:02:9f:38:c8:0c:4a:e4:2c:17:0b:68:
        23:66:d8:95:b6:93:df:b4:cc:e7:39:dc:34:c1:3e:15:fc:c7:
        50:9f:ca:56
-----BEGIN CERTIFICATE-----
MIIDCTCCAfGgAwIBAgIUPNov/TjS/tWMivZVHqHXCsSCbpcwDQYJKoZIhvcNAQEL
BQAwFDESMBAGA1UEAwwJbG9jYWxob3N0MB4XDTI1MDYxNjE4NTQzOVoXDTI1MDcx
NjE4NTQzOVowFDESMBAGA1UEAwwJbG9jYWxob3N0MIIBIjANBgkqhkiG9w0BAQEF
AAOCAQ8AMIIBCgKCAQEAybAGXJ+Yd/u9V5lOHis9pW24bJ95Kcol4SpAzSqUMELD
oGzTN2b+uOD308FonhzkbzB/18wbsAqHOaRquYmH6bIu/7DzxMpo/GpzTsuELxn4
1p2m1Ki+zqcowsR+8TZrRms2ENkB4Q3AXu2gxSNhXn3wXhgJcwDgdj/6Mg/reAsm
anntxPEdM7O65VaCaRoTVpz0t49nhTIdKUZ+nzR18d6mThFT68zjSk/s8eszPDiv
JQzFctgiXC/Z08rxPN/xLYbGHoClJ4WZebm8yXGP9r5z6KHF8CkbzFzhcRXctYtc
8+wTGqVcoexCB3//LCetrFs2lPABmj30lBfWLv5L2QIDAQABo1MwUTAdBgNVHQ4E
FgQU9TCPZYAPowKWhWuQFAwDbeWmPk4wHwYDVR0jBBgwFoAU9TCPZYAPowKWhWuQ
FAwDbeWmPk4wDwYDVR0TAQH/BAUwAwEB/zANBgkqhkiG9w0BAQsFAAOCAQEABVH4
D4cZo6vtxeWNCgX16UUurAcWmX8BV/TnUfi861dBlgfFIkzeRSTJV65mmG5BT/xJ
zyZizsRoswYj7Rmhp5EJ6FmvgjbQ4TjNWcpm3JJVYPgIh24NqEVBGhpa/FUerZKl
fE+P1ozVbxF5qdFwPD/IZ956XM4DTR8nQ27iOruEe8PhTePkBnTYXlmbP5+aTUGT
kD06T0fBizd8Dzjb3orv/EF7QWVRQZudFCHpp05k4lmf8NO1GjCn39YQg5Of/Zjm
VLjzzcgUdi66PisiCE0wZQwvqBjJN9+wFixw1AKfOMgMSuQsFwtoI2bYlbaT37TM
5zncNME+FfzHUJ/KVg==
-----END CERTIFICATE-----
